(dp1
S'3319.png'
p2
I27
sS'1012.png'
p3
I1
sS'2544.png'
p4
I19
sS'1591.png'
p5
I3
sS'1592.png'
p6
I3
sS'2570.png'
p7
I20
sS'3271.png'
p8
I26
sS'3437.png'
p9
I29
sS'2664.png'
p10
I21
sS'2425.png'
p11
I18
sS'1241.png'
p12
I5
sS'1261.png'
p13
I5
sS'3537.png'
p14
I31
sS'3254.png'
p15
I26
sS'3060.png'
p16
I23
sS'3616.png'
p17
I32
sS'3387.png'
p18
I28
sS'2596.png'
p19
I20
sS'2604.png'
p20
I20
sS'2249.png'
p21
I15
sS'3074.png'
p22
I23
sS'2599.png'
p23
I20
sS'2230.png'
p24
I14
sS'2370.png'
p25
I17
sS'3471.png'
p26
I30
sS'2320.png'
p27
I16
sS'3289.png'
p28
I27
sS'1333.png'
p29
I7
sS'1289.png'
p30
I6
sS'2008.png'
p31
I11
sS'2374.png'
p32
I17
sS'3010.png'
p33
I22
sS'1582.png'
p34
I3
sS'1314.png'
p35
I6
sS'3335.png'
p36
I28
sS'2197.png'
p37
I14
sS'2402.png'
p38
I17
sS'2580.png'
p39
I20
sS'3258.png'
p40
I26
sS'1479.png'
p41
I10
sS'3097.png'
p42
I23
sS'3236.png'
p43
I26
sS'1183.png'
p44
I4
sS'2298.png'
p45
I16
sS'2152.png'
p46
I13
sS'3453.png'
p47
I30
sS'1537.png'
p48
I9
sS'1464.png'
p49
I10
sS'2636.png'
p50
I21
sS'1157.png'
p51
I4
sS'2205.png'
p52
I14
sS'1205.png'
p53
I5
sS'2362.png'
p54
I17
sS'1563.png'
p55
I3
sS'1008.png'
p56
I1
sS'3130.png'
p57
I24
sS'2434.png'
p58
I18
sS'2274.png'
p59
I15
sS'1096.png'
p60
I2
sS'2414.png'
p61
I17
sS'2040.png'
p62
I11
sS'3004.png'
p63
I22
sS'1099.png'
p64
I2
sS'1219.png'
p65
I5
sS'3204.png'
p66
I25
sS'2518.png'
p67
I19
sS'3429.png'
p68
I29
sS'2453.png'
p69
I18
sS'3426.png'
p70
I29
sS'3589.png'
p71
I32
sS'1022.png'
p72
I1
sS'1559.png'
p73
I3
sS'1140.png'
p74
I4
sS'3384.png'
p75
I28
sS'3207.png'
p76
I25
sS'2572.png'
p77
I20
sS'3264.png'
p78
I26
sS'3061.png'
p79
I23
sS'2304.png'
p80
I16
sS'3135.png'
p81
I24
sS'1204.png'
p82
I5
sS'2606.png'
p83
I20
sS'3358.png'
p84
I28
sS'2256.png'
p85
I15
sS'1244.png'
p86
I5
sS'3530.png'
p87
I31
sS'2609.png'
p88
I20
sS'2122.png'
p89
I13
sS'2511.png'
p90
I19
sS'1376.png'
p91
I7
sS'2505.png'
p92
I19
sS'2471.png'
p93
I18
sS'3114.png'
p94
I24
sS'2404.png'
p95
I17
sS'2303.png'
p96
I16
sS'3500.png'
p97
I30
sS'1504.png'
p98
I9
sS'1070.png'
p99
I2
sS'3352.png'
p100
I28
sS'3324.png'
p101
I27
sS'2665.png'
p102
I21
sS'1606.png'
p103
I3
sS'2064.png'
p104
I12
sS'3609.png'
p105
I32
sS'3488.png'
p106
I30
sS'3450.png'
p107
I30
sS'2121.png'
p108
I13
sS'2186.png'
p109
I14
sS'2060.png'
p110
I12
sS'1088.png'
p111
I2
sS'3261.png'
p112
I26
sS'3576.png'
p113
I32
sS'1240.png'
p114
I5
sS'2627.png'
p115
I21
sS'1042.png'
p116
I1
sS'2038.png'
p117
I11
sS'1124.png'
p118
I4
sS'1518.png'
p119
I9
sS'3119.png'
p120
I24
sS'2139.png'
p121
I13
sS'2079.png'
p122
I12
sS'3592.png'
p123
I32
sS'1050.png'
p124
I1
sS'1265.png'
p125
I5
sS'2155.png'
p126
I13
sS'3333.png'
p127
I27
sS'3240.png'
p128
I26
sS'1382.png'
p129
I7
sS'3283.png'
p130
I27
sS'2319.png'
p131
I16
sS'2474.png'
p132
I18
sS'2299.png'
p133
I16
sS'3580.png'
p134
I32
sS'3406.png'
p135
I29
sS'3173.png'
p136
I24
sS'3287.png'
p137
I27
sS'3380.png'
p138
I28
sS'2496.png'
p139
I19
sS'2296.png'
p140
I16
sS'2076.png'
p141
I12
sS'2618.png'
p142
I21
sS'2183.png'
p143
I14
sS'2562.png'
p144
I20
sS'1097.png'
p145
I2
sS'3095.png'
p146
I23
sS'1128.png'
p147
I4
sS'3226.png'
p148
I25
sS'1365.png'
p149
I7
sS'1223.png'
p150
I5
sS'2024.png'
p151
I11
sS'1393.png'
p152
I8
sS'3604.png'
p153
I32
sS'3588.png'
p154
I32
sS'3019.png'
p155
I22
sS'3397.png'
p156
I29
sS'3205.png'
p157
I25
sS'1415.png'
p158
I8
sS'2305.png'
p159
I16
sS'1401.png'
p160
I8
sS'1486.png'
p161
I10
sS'1560.png'
p162
I3
sS'2096.png'
p163
I12
sS'1134.png'
p164
I4
sS'3524.png'
p165
I31
sS'1521.png'
p166
I9
sS'3454.png'
p167
I30
sS'1558.png'
p168
I3
sS'1458.png'
p169
I10
sS'3073.png'
p170
I23
sS'3385.png'
p171
I28
sS'1443.png'
p172
I10
sS'2069.png'
p173
I12
sS'1555.png'
p174
I3
sS'2528.png'
p175
I19
sS'3302.png'
p176
I27
sS'3235.png'
p177
I26
sS'2607.png'
p178
I20
sS'3347.png'
p179
I28
sS'1390.png'
p180
I8
sS'1607.png'
p181
I3
sS'2393.png'
p182
I17
sS'2273.png'
p183
I15
sS'3020.png'
p184
I22
sS'1113.png'
p185
I2
sS'3228.png'
p186
I25
sS'3146.png'
p187
I24
sS'2123.png'
p188
I13
sS'2309.png'
p189
I16
sS'1503.png'
p190
I9
sS'2327.png'
p191
I16
sS'3364.png'
p192
I28
sS'2105.png'
p193
I12
sS'2281.png'
p194
I15
sS'1301.png'
p195
I6
sS'3090.png'
p196
I23
sS'1177.png'
p197
I4
sS'2228.png'
p198
I14
sS'3304.png'
p199
I27
sS'3501.png'
p200
I30
sS'1325.png'
p201
I7
sS'2448.png'
p202
I18
sS'3451.png'
p203
I30
sS'2649.png'
p204
I21
sS'2016.png'
p205
I11
sS'1005.png'
p206
I1
sS'1232.png'
p207
I5
sS'1463.png'
p208
I10
sS'3357.png'
p209
I28
sS'2489.png'
p210
I19
sS'3157.png'
p211
I24
sS'3582.png'
p212
I32
sS'2497.png'
p213
I19
sS'1308.png'
p214
I6
sS'3514.png'
p215
I31
sS'2227.png'
p216
I14
sS'2333.png'
p217
I16
sS'1362.png'
p218
I7
sS'3538.png'
p219
I31
sS'2389.png'
p220
I17
sS'3320.png'
p221
I27
sS'1048.png'
p222
I1
sS'3373.png'
p223
I28
sS'1547.png'
p224
I9
sS'2475.png'
p225
I18
sS'3297.png'
p226
I27
sS'3559.png'
p227
I31
sS'1331.png'
p228
I7
sS'2078.png'
p229
I12
sS'1123.png'
p230
I4
sS'3418.png'
p231
I29
sS'2253.png'
p232
I15
sS'3552.png'
p233
I31
sS'2330.png'
p234
I16
sS'3613.png'
p235
I32
sS'3286.png'
p236
I27
sS'2257.png'
p237
I15
sS'1107.png'
p238
I2
sS'2097.png'
p239
I12
sS'3361.png'
p240
I28
sS'2582.png'
p241
I20
sS'3545.png'
p242
I31
sS'1304.png'
p243
I6
sS'1248.png'
p244
I5
sS'1045.png'
p245
I1
sS'2268.png'
p246
I15
sS'2445.png'
p247
I18
sS'1349.png'
p248
I7
sS'3018.png'
p249
I22
sS'1516.png'
p250
I9
sS'2529.png'
p251
I19
sS'2661.png'
p252
I21
sS'1318.png'
p253
I6
sS'3017.png'
p254
I22
sS'3366.png'
p255
I28
sS'2458.png'
p256
I18
sS'2031.png'
p257
I11
sS'3412.png'
p258
I29
sS'2513.png'
p259
I19
sS'2098.png'
p260
I12
sS'2288.png'
p261
I15
sS'1293.png'
p262
I6
sS'2311.png'
p263
I16
sS'3184.png'
p264
I25
sS'1272.png'
p265
I6
sS'2546.png'
p266
I19
sS'1340.png'
p267
I7
sS'1235.png'
p268
I5
sS'3301.png'
p269
I27
sS'2267.png'
p270
I15
sS'1605.png'
p271
I3
sS'3525.png'
p272
I31
sS'3435.png'
p273
I29
sS'1452.png'
p274
I10
sS'2551.png'
p275
I20
sS'1175.png'
p276
I4
sS'3338.png'
p277
I28
sS'2451.png'
p278
I18
sS'2007.png'
p279
I11
sS'1578.png'
p280
I3
sS'3141.png'
p281
I24
sS'1336.png'
p282
I7
sS'1010.png'
p283
I1
sS'1020.png'
p284
I1
sS'2280.png'
p285
I15
sS'2169.png'
p286
I14
sS'2525.png'
p287
I19
sS'3340.png'
p288
I28
sS'2368.png'
p289
I17
sS'3273.png'
p290
I26
sS'1431.png'
p291
I8
sS'3432.png'
p292
I29
sS'3117.png'
p293
I24
sS'2568.png'
p294
I20
sS'2400.png'
p295
I17
sS'1101.png'
p296
I2
sS'1444.png'
p297
I10
sS'3178.png'
p298
I25
sS'1364.png'
p299
I7
sS'1200.png'
p300
I5
sS'1544.png'
p301
I9
sS'2589.png'
p302
I20
sS'2495.png'
p303
I19
sS'3107.png'
p304
I23
sS'1341.png'
p305
I7
sS'2219.png'
p306
I14
sS'1158.png'
p307
I4
sS'2226.png'
p308
I14
sS'3583.png'
p309
I32
sS'1013.png'
p310
I1
sS'1598.png'
p311
I3
sS'2533.png'
p312
I19
sS'3069.png'
p313
I23
sS'3539.png'
p314
I31
sS'2332.png'
p315
I16
sS'2160.png'
p316
I13
sS'3227.png'
p317
I25
sS'2112.png'
p318
I12
sS'2195.png'
p319
I14
sS'2015.png'
p320
I11
sS'2427.png'
p321
I18
sS'2354.png'
p322
I17
sS'3243.png'
p323
I26
sS'1399.png'
p324
I8
sS'1417.png'
p325
I8
sS'3163.png'
p326
I24
sS'1197.png'
p327
I5
sS'2388.png'
p328
I17
sS'3077.png'
p329
I23
sS'2172.png'
p330
I14
sS'1080.png'
p331
I2
sS'3496.png'
p332
I30
sS'1496.png'
p333
I10
sS'2150.png'
p334
I13
sS'2247.png'
p335
I15
sS'2042.png'
p336
I11
sS'3253.png'
p337
I26
sS'2324.png'
p338
I16
sS'2259.png'
p339
I15
sS'2310.png'
p340
I16
sS'1267.png'
p341
I5
sS'3411.png'
p342
I29
sS'2156.png'
p343
I13
sS'2285.png'
p344
I15
sS'1534.png'
p345
I9
sS'1421.png'
p346
I8
sS'3434.png'
p347
I29
sS'1291.png'
p348
I6
sS'2036.png'
p349
I11
sS'3382.png'
p350
I28
sS'3137.png'
p351
I24
sS'2464.png'
p352
I18
sS'2269.png'
p353
I15
sS'1540.png'
p354
I9
sS'2085.png'
p355
I12
sS'3343.png'
p356
I28
sS'2610.png'
p357
I20
sS'1296.png'
p358
I6
sS'2159.png'
p359
I13
sS'1153.png'
p360
I4
sS'1029.png'
p361
I1
sS'1361.png'
p362
I7
sS'2516.png'
p363
I19
sS'3039.png'
p364
I22
sS'3219.png'
p365
I25
sS'3497.png'
p366
I30
sS'1063.png'
p367
I2
sS'3606.png'
p368
I32
sS'1174.png'
p369
I4
sS'3542.png'
p370
I31
sS'1326.png'
p371
I7
sS'2671.png'
p372
I21
sS'3050.png'
p373
I22
sS'2651.png'
p374
I21
sS'1576.png'
p375
I3
sS'3438.png'
p376
I29
sS'3456.png'
p377
I30
sS'3263.png'
p378
I26
sS'1111.png'
p379
I2
sS'1374.png'
p380
I7
sS'1568.png'
p381
I3
sS'2456.png'
p382
I18
sS'3116.png'
p383
I24
sS'1545.png'
p384
I9
sS'1506.png'
p385
I9
sS'3279.png'
p386
I26
sS'1031.png'
p387
I1
sS'3350.png'
p388
I28
sS'1249.png'
p389
I5
sS'2294.png'
p390
I16
sS'3591.png'
p391
I32
sS'3045.png'
p392
I22
sS'3089.png'
p393
I23
sS'2142.png'
p394
I13
sS'3125.png'
p395
I24
sS'1500.png'
p396
I9
sS'3574.png'
p397
I32
sS'3464.png'
p398
I30
sS'2378.png'
p399
I17
sS'2009.png'
p400
I11
sS'3149.png'
p401
I24
sS'2181.png'
p402
I14
sS'3372.png'
p403
I28
sS'1369.png'
p404
I7
sS'1212.png'
p405
I5
sS'2014.png'
p406
I11
sS'1230.png'
p407
I5
sS'1439.png'
p408
I10
sS'1579.png'
p409
I3
sS'3242.png'
p410
I26
sS'2635.png'
p411
I21
sS'3080.png'
p412
I23
sS'3467.png'
p413
I30
sS'2312.png'
p414
I16
sS'1412.png'
p415
I8
sS'3404.png'
p416
I29
sS'1311.png'
p417
I6
sS'3355.png'
p418
I28
sS'1294.png'
p419
I6
sS'2466.png'
p420
I18
sS'2084.png'
p421
I12
sS'1442.png'
p422
I10
sS'2469.png'
p423
I18
sS'2629.png'
p424
I21
sS'2560.png'
p425
I20
sS'1527.png'
p426
I9
sS'2210.png'
p427
I14
sS'2371.png'
p428
I17
sS'3295.png'
p429
I27
sS'3218.png'
p430
I25
sS'1440.png'
p431
I10
sS'2365.png'
p432
I17
sS'2244.png'
p433
I15
sS'3498.png'
p434
I30
sS'3063.png'
p435
I23
sS'1185.png'
p436
I4
sS'3001.png'
p437
I22
sS'1610.png'
p438
I3
sS'1498.png'
p439
I9
sS'2405.png'
p440
I17
sS'3442.png'
p441
I29
sS'2381.png'
p442
I17
sS'1260.png'
p443
I5
sS'3376.png'
p444
I28
sS'2536.png'
p445
I19
sS'3237.png'
p446
I26
sS'3390.png'
p447
I29
sS'2213.png'
p448
I14
sS'2532.png'
p449
I19
sS'3136.png'
p450
I24
sS'1536.png'
p451
I9
sS'2271.png'
p452
I15
sS'3022.png'
p453
I22
sS'3401.png'
p454
I29
sS'2634.png'
p455
I21
sS'2447.png'
p456
I18
sS'3206.png'
p457
I25
sS'1385.png'
p458
I7
sS'1188.png'
p459
I4
sS'2556.png'
p460
I20
sS'3378.png'
p461
I28
sS'3214.png'
p462
I25
sS'3034.png'
p463
I22
sS'3420.png'
p464
I29
sS'3025.png'
p465
I22
sS'3259.png'
p466
I26
sS'3535.png'
p467
I31
sS'2162.png'
p468
I13
sS'2480.png'
p469
I18
sS'3313.png'
p470
I27
sS'2236.png'
p471
I15
sS'2593.png'
p472
I20
sS'1351.png'
p473
I7
sS'1316.png'
p474
I6
sS'3046.png'
p475
I22
sS'3262.png'
p476
I26
sS'2478.png'
p477
I18
sS'3516.png'
p478
I31
sS'2302.png'
p479
I16
sS'3381.png'
p480
I28
sS'3568.png'
p481
I32
sS'3575.png'
p482
I32
sS'1247.png'
p483
I5
sS'2120.png'
p484
I13
sS'1210.png'
p485
I5
sS'3055.png'
p486
I22
sS'1438.png'
p487
I10
sS'3148.png'
p488
I24
sS'1105.png'
p489
I2
sS'1083.png'
p490
I2
sS'1461.png'
p491
I10
sS'1433.png'
p492
I8
sS'3465.png'
p493
I30
sS'2136.png'
p494
I13
sS'2655.png'
p495
I21
sS'1032.png'
p496
I1
sS'1556.png'
p497
I3
sS'3511.png'
p498
I31
sS'1501.png'
p499
I9
sS'1567.png'
p500
I3
sS'1345.png'
p501
I7
sS'1069.png'
p502
I2
sS'1257.png'
p503
I5
sS'2086.png'
p504
I12
sS'2180.png'
p505
I14
sS'1047.png'
p506
I1
sS'2348.png'
p507
I17
sS'3455.png'
p508
I30
sS'2574.png'
p509
I20
sS'2561.png'
p510
I20
sS'2467.png'
p511
I18
sS'1462.png'
p512
I10
sS'3443.png'
p513
I29
sS'2102.png'
p514
I12
sS'3002.png'
p515
I22
sS'3164.png'
p516
I24
sS'3294.png'
p517
I27
sS'1071.png'
p518
I2
sS'3448.png'
p519
I30
sS'3326.png'
p520
I27
sS'2211.png'
p521
I14
sS'2065.png'
p522
I12
sS'3023.png'
p523
I22
sS'2071.png'
p524
I12
sS'3345.png'
p525
I28
sS'1161.png'
p526
I4
sS'3346.png'
p527
I28
sS'1574.png'
p528
I3
sS'1584.png'
p529
I3
sS'2245.png'
p530
I15
sS'3154.png'
p531
I24
sS'2663.png'
p532
I21
sS'3527.png'
p533
I31
sS'3198.png'
p534
I25
sS'3590.png'
p535
I32
sS'2028.png'
p536
I11
sS'1145.png'
p537
I4
sS'3483.png'
p538
I30
sS'3058.png'
p539
I23
sS'2429.png'
p540
I18
sS'2033.png'
p541
I11
sS'2504.png'
p542
I19
sS'1499.png'
p543
I9
sS'1092.png'
p544
I2
sS'1202.png'
p545
I5
sS'2229.png'
p546
I14
sS'1494.png'
p547
I10
sS'3282.png'
p548
I27
sS'2237.png'
p549
I15
sS'1168.png'
p550
I4
sS'3536.png'
p551
I31
sS'2035.png'
p552
I11
sS'1472.png'
p553
I10
sS'1102.png'
p554
I2
sS'1229.png'
p555
I5
sS'3517.png'
p556
I31
sS'1480.png'
p557
I10
sS'1542.png'
p558
I9
sS'1334.png'
p559
I7
sS'2558.png'
p560
I20
sS'1051.png'
p561
I1
sS'1151.png'
p562
I4
sS'3288.png'
p563
I27
sS'3493.png'
p564
I30
sS'1276.png'
p565
I6
sS'2167.png'
p566
I14
sS'2602.png'
p567
I20
sS'2013.png'
p568
I11
sS'1211.png'
p569
I5
sS'1164.png'
p570
I4
sS'3201.png'
p571
I25
sS'3177.png'
p572
I25
sS'3105.png'
p573
I23
sS'3188.png'
p574
I25
sS'1286.png'
p575
I6
sS'1129.png'
p576
I4
sS'1459.png'
p577
I10
sS'1004.png'
p578
I1
sS'2349.png'
p579
I17
sS'2401.png'
p580
I17
sS'3579.png'
p581
I32
sS'1178.png'
p582
I4
sS'1064.png'
p583
I2
sS'2095.png'
p584
I12
sS'2373.png'
p585
I17
sS'1033.png'
p586
I1
sS'1380.png'
p587
I7
sS'3617.png'
p588
I32
sS'2326.png'
p589
I16
sS'1120.png'
p590
I2
sS'1095.png'
p591
I2
sS'1285.png'
p592
I6
sS'1400.png'
p593
I8
sS'3441.png'
p594
I29
sS'1590.png'
p595
I3
sS'1384.png'
p596
I7
sS'2025.png'
p597
I11
sS'3093.png'
p598
I23
sS'2331.png'
p599
I16
sS'3341.png'
p600
I28
sS'2519.png'
p601
I19
sS'2127.png'
p602
I13
sS'3321.png'
p603
I27
sS'1566.png'
p604
I3
sS'1156.png'
p605
I4
sS'3251.png'
p606
I26
sS'3561.png'
p607
I31
sS'2345.png'
p608
I16
sS'3413.png'
p609
I29
sS'2149.png'
p610
I13
sS'1186.png'
p611
I4
sS'2308.png'
p612
I16
sS'2189.png'
p613
I14
sS'3318.png'
p614
I27
sS'1313.png'
p615
I6
sS'3033.png'
p616
I22
sS'1104.png'
p617
I2
sS'2642.png'
p618
I21
sS'2605.png'
p619
I20
sS'1052.png'
p620
I1
sS'1392.png'
p621
I8
sS'3562.png'
p622
I31
sS'2235.png'
p623
I15
sS'1571.png'
p624
I3
sS'3540.png'
p625
I31
sS'1481.png'
p626
I10
sS'1595.png'
p627
I3
sS'3367.png'
p628
I28
sS'1121.png'
p629
I2
sS'2022.png'
p630
I11
sS'3076.png'
p631
I23
sS'2353.png'
p632
I17
sS'2590.png'
p633
I20
sS'3558.png'
p634
I31
sS'1328.png'
p635
I7
sS'1335.png'
p636
I7
sS'2252.png'
p637
I15
sS'1505.png'
p638
I9
sS'2260.png'
p639
I15
sS'2507.png'
p640
I19
sS'2287.png'
p641
I15
sS'3011.png'
p642
I22
sS'3052.png'
p643
I22
sS'2041.png'
p644
I11
sS'3423.png'
p645
I29
sS'3144.png'
p646
I24
sS'3303.png'
p647
I27
sS'3197.png'
p648
I25
sS'3056.png'
p649
I23
sS'2034.png'
p650
I11
sS'3507.png'
p651
I30
sS'2630.png'
p652
I21
sS'3292.png'
p653
I27
sS'2559.png'
p654
I20
sS'2107.png'
p655
I12
sS'2103.png'
p656
I12
sS'2554.png'
p657
I20
sS'3127.png'
p658
I24
sS'3433.png'
p659
I29
sS'3104.png'
p660
I23
sS'3608.png'
p661
I32
sS'1305.png'
p662
I6
sS'1287.png'
p663
I6
sS'3275.png'
p664
I26
sS'3222.png'
p665
I25
sS'1288.png'
p666
I6
sS'1513.png'
p667
I9
sS'3120.png'
p668
I24
sS'3298.png'
p669
I27
sS'2067.png'
p670
I12
sS'1116.png'
p671
I2
sS'1056.png'
p672
I1
sS'2470.png'
p673
I18
sS'1453.png'
p674
I10
sS'2376.png'
p675
I17
sS'3586.png'
p676
I32
sS'3479.png'
p677
I30
sS'2242.png'
p678
I15
sS'1541.png'
p679
I9
sS'1603.png'
p680
I3
sS'3250.png'
p681
I26
sS'3172.png'
p682
I24
sS'3032.png'
p683
I22
sS'2657.png'
p684
I21
sS'3374.png'
p685
I28
sS'1242.png'
p686
I5
sS'3192.png'
p687
I25
sS'1146.png'
p688
I4
sS'1330.png'
p689
I7
sS'2411.png'
p690
I17
sS'1059.png'
p691
I1
sS'1564.png'
p692
I3
sS'2431.png'
p693
I18
sS'1554.png'
p694
I3
sS'3280.png'
p695
I26
sS'3560.png'
p696
I31
sS'2051.png'
p697
I12
sS'1403.png'
p698
I8
sS'2193.png'
p699
I14
sS'3403.png'
p700
I29
sS'3118.png'
p701
I24
sS'2524.png'
p702
I19
sS'1106.png'
p703
I2
sS'1114.png'
p704
I2
sS'3134.png'
p705
I24
sS'2419.png'
p706
I17
sS'1187.png'
p707
I4
sS'1053.png'
p708
I1
sS'1018.png'
p709
I1
sS'3419.png'
p710
I29
sS'2493.png'
p711
I19
sS'1295.png'
p712
I6
sS'3506.png'
p713
I30
sS'3147.png'
p714
I24
sS'1245.png'
p715
I5
sS'2336.png'
p716
I16
sS'1196.png'
p717
I5
sS'1233.png'
p718
I5
sS'2157.png'
p719
I13
sS'3065.png'
p720
I23
sS'2517.png'
p721
I19
sS'3329.png'
p722
I27
sS'3126.png'
p723
I24
sS'2573.png'
p724
I20
sS'2398.png'
p725
I17
sS'1222.png'
p726
I5
sS'3182.png'
p727
I25
sS'1109.png'
p728
I2
sS'3068.png'
p729
I23
sS'3388.png'
p730
I28
sS'2506.png'
p731
I19
sS'3260.png'
p732
I26
sS'1090.png'
p733
I2
sS'3422.png'
p734
I29
sS'3383.png'
p735
I28
sS'2455.png'
p736
I18
sS'3581.png'
p737
I32
sS'1011.png'
p738
I1
sS'2113.png'
p739
I12
sS'3057.png'
p740
I23
sS'2258.png'
p741
I15
sS'1171.png'
p742
I4
sS'1347.png'
p743
I7
sS'3274.png'
p744
I26
sS'1034.png'
p745
I1
sS'1363.png'
p746
I7
sS'2539.png'
p747
I19
sS'1451.png'
p748
I10
sS'3614.png'
p749
I32
sS'2449.png'
p750
I18
sS'2300.png'
p751
I16
sS'1533.png'
p752
I9
sS'3478.png'
p753
I30
sS'3108.png'
p754
I23
sS'2272.png'
p755
I15
sS'2129.png'
p756
I13
sS'1420.png'
p757
I8
sS'2622.png'
p758
I21
sS'1274.png'
p759
I6
sS'2182.png'
p760
I14
sS'2600.png'
p761
I20
sS'2049.png'
p762
I11
sS'2356.png'
p763
I17
sS'3457.png'
p764
I30
sS'2527.png'
p765
I19
sS'1355.png'
p766
I7
sS'3030.png'
p767
I22
sS'2062.png'
p768
I12
sS'2352.png'
p769
I17
sS'3356.png'
p770
I28
sS'2192.png'
p771
I14
sS'1073.png'
p772
I2
sS'2454.png'
p773
I18
sS'1058.png'
p774
I1
sS'3466.png'
p775
I30
sS'1227.png'
p776
I5
sS'3474.png'
p777
I30
sS'1413.png'
p778
I8
sS'2030.png'
p779
I11
sS'1508.png'
p780
I9
sS'1379.png'
p781
I7
sS'1302.png'
p782
I6
sS'3190.png'
p783
I25
sS'1074.png'
p784
I2
sS'2174.png'
p785
I14
sS'3439.png'
p786
I29
sS'2250.png'
p787
I15
sS'2220.png'
p788
I14
sS'1402.png'
p789
I8
sS'1524.png'
p790
I9
sS'2650.png'
p791
I21
sS'1131.png'
p792
I4
sS'1263.png'
p793
I5
sS'1176.png'
p794
I4
sS'2407.png'
p795
I17
sS'3504.png'
p796
I30
sS'3156.png'
p797
I24
sS'3368.png'
p798
I28
sS'3402.png'
p799
I29
sS'2670.png'
p800
I21
sS'3491.png'
p801
I30
sS'3009.png'
p802
I22
sS'2212.png'
p803
I14
sS'2168.png'
p804
I14
sS'3328.png'
p805
I27
sS'3062.png'
p806
I23
sS'2396.png'
p807
I17
sS'1273.png'
p808
I6
sS'3528.png'
p809
I31
sS'3379.png'
p810
I28
sS'2200.png'
p811
I14
sS'2435.png'
p812
I18
sS'3534.png'
p813
I31
sS'3185.png'
p814
I25
sS'1044.png'
p815
I1
sS'3012.png'
p816
I22
sS'1307.png'
p817
I6
sS'2523.png'
p818
I19
sS'3110.png'
p819
I23
sS'1535.png'
p820
I9
sS'1125.png'
p821
I4
sS'3612.png'
p822
I32
sS'1423.png'
p823
I8
sS'1609.png'
p824
I3
sS'3487.png'
p825
I30
sS'3203.png'
p826
I25
sS'3153.png'
p827
I24
sS'3024.png'
p828
I22
sS'1258.png'
p829
I5
sS'1262.png'
p830
I5
sS'2314.png'
p831
I16
sS'2301.png'
p832
I16
sS'2620.png'
p833
I21
sS'2048.png'
p834
I11
sS'1489.png'
p835
I10
sS'2027.png'
p836
I11
sS'2473.png'
p837
I18
sS'1611.png'
p838
I3
sS'2011.png'
p839
I11
sS'2043.png'
p840
I11
sS'2537.png'
p841
I19
sS'1072.png'
p842
I2
sS'1398.png'
p843
I8
sS'2110.png'
p844
I12
sS'3342.png'
p845
I28
sS'3175.png'
p846
I24
sS'3044.png'
p847
I22
sS'1497.png'
p848
I9
sS'2151.png'
p849
I13
sS'3171.png'
p850
I24
sS'3244.png'
p851
I26
sS'2128.png'
p852
I13
sS'2526.png'
p853
I19
sS'2289.png'
p854
I15
sS'2499.png'
p855
I19
sS'2364.png'
p856
I17
sS'2125.png'
p857
I13
sS'3510.png'
p858
I30
sS'3331.png'
p859
I27
sS'1068.png'
p860
I2
sS'2012.png'
p861
I11
sS'2481.png'
p862
I18
sS'2093.png'
p863
I12
sS'1089.png'
p864
I2
sS'2173.png'
p865
I14
sS'1054.png'
p866
I1
sS'3072.png'
p867
I23
sS'1154.png'
p868
I4
sS'2338.png'
p869
I16
sS'3215.png'
p870
I25
sS'2587.png'
p871
I20
sS'1378.png'
p872
I7
sS'1427.png'
p873
I8
sS'3584.png'
p874
I32
sS'2538.png'
p875
I19
sS'1530.png'
p876
I9
sS'2255.png'
p877
I15
sS'2462.png'
p878
I18
sS'2632.png'
p879
I21
sS'2501.png'
p880
I19
sS'3111.png'
p881
I24
sS'3461.png'
p882
I30
sS'1209.png'
p883
I5
sS'2002.png'
p884
I11
sS'3317.png'
p885
I27
sS'1428.png'
p886
I8
sS'3599.png'
p887
I32
sS'1026.png'
p888
I1
sS'2020.png'
p889
I11
sS'2619.png'
p890
I21
sS'1604.png'
p891
I3
sS'2218.png'
p892
I14
sS'2387.png'
p893
I17
sS'2137.png'
p894
I13
sS'1306.png'
p895
I6
sS'3087.png'
p896
I23
sS'1507.png'
p897
I9
sS'1309.png'
p898
I6
sS'3013.png'
p899
I22
sS'1422.png'
p900
I8
sS'1469.png'
p901
I10
sS'3594.png'
p902
I32
sS'1025.png'
p903
I1
sS'2646.png'
p904
I21
sS'2080.png'
p905
I12
sS'1231.png'
p906
I5
sS'2621.png'
p907
I21
sS'3245.png'
p908
I26
sS'2418.png'
p909
I17
sS'2379.png'
p910
I17
sS'2215.png'
p911
I14
sS'1585.png'
p912
I3
sS'3431.png'
p913
I29
sS'1310.png'
p914
I6
sS'3194.png'
p915
I25
sS'3168.png'
p916
I24
sS'2029.png'
p917
I11
sS'2166.png'
p918
I14
sS'1569.png'
p919
I3
sS'2494.png'
p920
I19
sS'3543.png'
p921
I31
sS'2549.png'
p922
I20
sS'1327.png'
p923
I7
sS'1268.png'
p924
I6
sS'1538.png'
p925
I9
sS'3165.png'
p926
I24
sS'1548.png'
p927
I9
sS'2111.png'
p928
I12
sS'1173.png'
p929
I4
sS'2422.png'
p930
I17
sS'1543.png'
p931
I9
sS'2465.png'
p932
I18
sS'3216.png'
p933
I25
sS'1460.png'
p934
I10
sS'2070.png'
p935
I12
sS'3170.png'
p936
I24
sS'1214.png'
p937
I5
sS'1405.png'
p938
I8
sS'3392.png'
p939
I29
sS'1284.png'
p940
I6
sS'2585.png'
p941
I20
sS'2108.png'
p942
I12
sS'2094.png'
p943
I12
sS'2240.png'
p944
I15
sS'1148.png'
p945
I4
sS'2270.png'
p946
I15
sS'1155.png'
p947
I4
sS'1388.png'
p948
I8
sS'2367.png'
p949
I17
sS'1483.png'
p950
I10
sS'1062.png'
p951
I2
sS'2557.png'
p952
I20
sS'1531.png'
p953
I9
sS'1256.png'
p954
I5
sS'3573.png'
p955
I32
sS'1357.png'
p956
I7
sS'2026.png'
p957
I11
sS'2450.png'
p958
I18
sS'1292.png'
p959
I6
sS'3393.png'
p960
I29
sS'2339.png'
p961
I16
sS'3578.png'
p962
I32
sS'3520.png'
p963
I31
sS'2134.png'
p964
I13
sS'3113.png'
p965
I24
sS'1596.png'
p966
I3
sS'1473.png'
p967
I10
sS'2334.png'
p968
I16
sS'1194.png'
p969
I4
sS'1429.png'
p970
I8
sS'3563.png'
p971
I31
sS'2243.png'
p972
I15
sS'1322.png'
p973
I6
sS'1514.png'
p974
I9
sS'1457.png'
p975
I10
sS'1165.png'
p976
I4
sS'1027.png'
p977
I1
sS'1381.png'
p978
I7
sS'3557.png'
p979
I31
sS'1570.png'
p980
I3
sS'3238.png'
p981
I26
sS'1395.png'
p982
I8
sS'3145.png'
p983
I24
sS'3415.png'
p984
I29
sS'2380.png'
p985
I17
sS'1332.png'
p986
I7
sS'1028.png'
p987
I1
sS'1001.png'
p988
I1
sS'1193.png'
p989
I4
sS'2535.png'
p990
I19
sS'3603.png'
p991
I32
sS'2567.png'
p992
I20
sS'3212.png'
p993
I25
sS'1371.png'
p994
I7
sS'3499.png'
p995
I30
sS'1213.png'
p996
I5
sS'3180.png'
p997
I25
sS'3247.png'
p998
I26
sS'3394.png'
p999
I29
sS'1057.png'
p1000
I1
sS'3447.png'
p1001
I30
sS'3430.png'
p1002
I29
sS'1474.png'
p1003
I10
sS'3312.png'
p1004
I27
sS'2437.png'
p1005
I18
sS'2143.png'
p1006
I13
sS'1253.png'
p1007
I5
sS'3186.png'
p1008
I25
sS'1150.png'
p1009
I4
sS'1350.png'
p1010
I7
sS'1036.png'
p1011
I1
sS'2291.png'
p1012
I16
sS'1046.png'
p1013
I1
sS'2543.png'
p1014
I19
sS'3299.png'
p1015
I27
sS'2521.png'
p1016
I19
sS'1189.png'
p1017
I4
sS'2344.png'
p1018
I16
sS'1269.png'
p1019
I6
sS'3485.png'
p1020
I30
sS'2130.png'
p1021
I13
sS'3354.png'
p1022
I28
sS'1266.png'
p1023
I5
sS'3035.png'
p1024
I22
sS'3217.png'
p1025
I25
sS'3189.png'
p1026
I25
sS'2279.png'
p1027
I15
sS'2023.png'
p1028
I11
sS'3098.png'
p1029
I23
sS'3121.png'
p1030
I24
sS'3290.png'
p1031
I27
sS'2233.png'
p1032
I15
sS'2584.png'
p1033
I20
sS'1035.png'
p1034
I1
sS'3053.png'
p1035
I22
sS'3327.png'
p1036
I27
sS'3043.png'
p1037
I22
sS'1115.png'
p1038
I2
sS'2672.png'
p1039
I21
sS'1093.png'
p1040
I2
sS'3091.png'
p1041
I23
sS'2089.png'
p1042
I12
sS'2106.png'
p1043
I12
sS'3391.png'
p1044
I29
sS'2377.png'
p1045
I17
sS'1195.png'
p1046
I5
sS'2073.png'
p1047
I12
sS'2313.png'
p1048
I16
sS'1082.png'
p1049
I2
sS'2366.png'
p1050
I17
sS'3059.png'
p1051
I23
sS'2032.png'
p1052
I11
sS'3336.png'
p1053
I28
sS'3400.png'
p1054
I29
sS'2118.png'
p1055
I13
sS'1329.png'
p1056
I7
sS'2135.png'
p1057
I13
sS'2176.png'
p1058
I14
sS'3519.png'
p1059
I31
sS'2261.png'
p1060
I15
sS'2410.png'
p1061
I17
sS'3038.png'
p1062
I22
sS'1127.png'
p1063
I4
sS'3414.png'
p1064
I29
sS'3096.png'
p1065
I23
sS'3601.png'
p1066
I32
sS'1103.png'
p1067
I2
sS'2359.png'
p1068
I17
sS'1283.png'
p1069
I6
sS'2170.png'
p1070
I14
sS'3482.png'
p1071
I30
sS'2603.png'
p1072
I20
sS'1199.png'
p1073
I5
sS'1425.png'
p1074
I8
sS'3151.png'
p1075
I24
sS'3276.png'
p1076
I26
sS'3569.png'
p1077
I32
sS'1271.png'
p1078
I6
sS'2612.png'
p1079
I20
sS'2442.png'
p1080
I18
sS'3596.png'
p1081
I32
sS'3029.png'
p1082
I22
sS'2460.png'
p1083
I18
sS'2109.png'
p1084
I12
sS'2347.png'
p1085
I17
sS'1135.png'
p1086
I4
sS'2530.png'
p1087
I19
sS'3223.png'
p1088
I25
sS'1613.png'
p1089
I3
sS'2116.png'
p1090
I13
sS'1087.png'
p1091
I2
sS'3026.png'
p1092
I22
sS'1528.png'
p1093
I9
sS'1435.png'
p1094
I8
sS'2675.png'
p1095
I21
sS'1016.png'
p1096
I1
sS'1119.png'
p1097
I2
sS'1162.png'
p1098
I4
sS'2190.png'
p1099
I14
sS'2575.png'
p1100
I20
sS'1445.png'
p1101
I10
sS'1614.png'
p1102
I3
sS'2050.png'
p1103
I11
sS'2644.png'
p1104
I21
sS'3187.png'
p1105
I25
sS'2430.png'
p1106
I18
sS'1511.png'
p1107
I9
sS'3293.png'
p1108
I27
sS'1436.png'
p1109
I8
sS'1495.png'
p1110
I10
sS'1515.png'
p1111
I9
sS'2146.png'
p1112
I13
sS'2483.png'
p1113
I18
sS'1312.png'
p1114
I6
sS'1259.png'
p1115
I5
sS'2617.png'
p1116
I21
sS'2578.png'
p1117
I20
sS'3389.png'
p1118
I28
sS'1298.png'
p1119
I6
sS'3512.png'
p1120
I31
sS'3541.png'
p1121
I31
sS'2088.png'
p1122
I12
sS'2063.png'
p1123
I12
sS'2295.png'
p1124
I16
sS'3167.png'
p1125
I24
sS'2087.png'
p1126
I12
sS'2512.png'
p1127
I19
sS'1243.png'
p1128
I5
sS'3200.png'
p1129
I25
sS'2484.png'
p1130
I18
sS'1061.png'
p1131
I2
sS'1167.png'
p1132
I4
sS'1383.png'
p1133
I7
sS'1278.png'
p1134
I6
sS'3102.png'
p1135
I23
sS'2072.png'
p1136
I12
sS'2343.png'
p1137
I16
sS'1216.png'
p1138
I5
sS'1181.png'
p1139
I4
sS'2666.png'
p1140
I21
sS'3109.png'
p1141
I23
sS'2653.png'
p1142
I21
sS'3518.png'
p1143
I31
sS'3133.png'
p1144
I24
sS'1565.png'
p1145
I3
sS'3463.png'
p1146
I30
sS'1490.png'
p1147
I10
sS'1075.png'
p1148
I2
sS'2522.png'
p1149
I19
sS'3600.png'
p1150
I32
sS'2417.png'
p1151
I17
sS'2440.png'
p1152
I18
sS'2188.png'
p1153
I14
sS'2643.png'
p1154
I21
sS'2503.png'
p1155
I19
sS'1207.png'
p1156
I5
sS'2555.png'
p1157
I20
sS'1270.png'
p1158
I6
sS'2357.png'
p1159
I17
sS'1612.png'
p1160
I3
sS'2262.png'
p1161
I15
sS'3006.png'
p1162
I22
sS'3049.png'
p1163
I22
sS'3315.png'
p1164
I27
sS'2126.png'
p1165
I13
sS'3067.png'
p1166
I23
sS'3256.png'
p1167
I26
sS'1238.png'
p1168
I5
sS'3311.png'
p1169
I27
sS'2171.png'
p1170
I14
sS'3424.png'
p1171
I29
sS'2673.png'
p1172
I21
sS'2346.png'
p1173
I16
sS'3267.png'
p1174
I26
sS'2385.png'
p1175
I17
sS'2053.png'
p1176
I12
sS'2239.png'
p1177
I15
sS'1319.png'
p1178
I6
sS'3150.png'
p1179
I24
sS'2217.png'
p1180
I14
sS'1587.png'
p1181
I3
sS'2668.png'
p1182
I21
sS'2652.png'
p1183
I21
sS'3036.png'
p1184
I22
sS'3027.png'
p1185
I22
sS'1608.png'
p1186
I3
sS'3522.png'
p1187
I31
sS'2500.png'
p1188
I19
sS'2221.png'
p1189
I14
sS'2383.png'
p1190
I17
sS'3587.png'
p1191
I32
sS'1226.png'
p1192
I5
sS'3051.png'
p1193
I22
sS'1434.png'
p1194
I8
sS'3232.png'
p1195
I26
sS'2482.png'
p1196
I18
sS'3532.png'
p1197
I31
sS'3210.png'
p1198
I25
sS'3370.png'
p1199
I28
sS'1416.png'
p1200
I8
sS'1580.png'
p1201
I3
sS'2591.png'
p1202
I20
sS'3475.png'
p1203
I30
sS'2104.png'
p1204
I12
sS'2144.png'
p1205
I13
sS'1118.png'
p1206
I2
sS'2358.png'
p1207
I17
sS'2185.png'
p1208
I14
sS'1509.png'
p1209
I9
sS'3548.png'
p1210
I31
sS'2452.png'
p1211
I18
sS'2361.png'
p1212
I17
sS'1426.png'
p1213
I8
sS'3502.png'
p1214
I30
sS'3513.png'
p1215
I31
sS'2498.png'
p1216
I19
sS'3309.png'
p1217
I27
sS'1180.png'
p1218
I4
sS'2598.png'
p1219
I20
sS'3166.png'
p1220
I24
sS'1471.png'
p1221
I10
sS'1275.png'
p1222
I6
sS'1407.png'
p1223
I8
sS'1297.png'
p1224
I6
sS'2479.png'
p1225
I18
sS'2132.png'
p1226
I13
sS'3440.png'
p1227
I29
sS'3225.png'
p1228
I25
sS'2201.png'
p1229
I14
sS'1166.png'
p1230
I4
sS'1019.png'
p1231
I1
sS'1299.png'
p1232
I6
sS'2057.png'
p1233
I12
sS'3071.png'
p1234
I23
sS'1169.png'
p1235
I4
sS'1060.png'
p1236
I2
sS'3128.png'
p1237
I24
sS'2426.png'
p1238
I18
sS'1386.png'
p1239
I8
sS'3375.png'
p1240
I28
sS'2397.png'
p1241
I17
sS'3007.png'
p1242
I22
sS'1091.png'
p1243
I2
sS'2441.png'
p1244
I18
sS'1404.png'
p1245
I8
sS'3174.png'
p1246
I24
sS'2594.png'
p1247
I20
sS'3425.png'
p1248
I29
sS'3064.png'
p1249
I23
sS'2639.png'
p1250
I21
sS'2058.png'
p1251
I12
sS'1170.png'
p1252
I4
sS'1485.png'
p1253
I10
sS'2254.png'
p1254
I15
sS'1586.png'
p1255
I3
sS'3183.png'
p1256
I25
sS'2588.png'
p1257
I20
sS'2234.png'
p1258
I15
sS'3139.png'
p1259
I24
sS'2329.png'
p1260
I16
sS'1147.png'
p1261
I4
sS'1522.png'
p1262
I9
sS'2141.png'
p1263
I13
sS'1251.png'
p1264
I5
sS'3008.png'
p1265
I22
sS'2154.png'
p1266
I13
sS'1488.png'
p1267
I10
sS'2263.png'
p1268
I15
sS'3208.png'
p1269
I25
sS'2282.png'
p1270
I15
sS'1055.png'
p1271
I1
sS'2052.png'
p1272
I12
sS'2019.png'
p1273
I11
sS'3476.png'
p1274
I30
sS'3310.png'
p1275
I27
sS'3369.png'
p1276
I28
sS'1264.png'
p1277
I5
sS'3533.png'
p1278
I31
sS'2601.png'
p1279
I20
sS'2390.png'
p1280
I17
sS'1024.png'
p1281
I1
sS'1532.png'
p1282
I9
sS'1418.png'
p1283
I8
sS'1599.png'
p1284
I3
sS'1476.png'
p1285
I10
sS'1203.png'
p1286
I5
sS'1602.png'
p1287
I3
sS'1368.png'
p1288
I7
sS'1352.png'
p1289
I7
sS'2337.png'
p1290
I16
sS'2576.png'
p1291
I20
sS'2658.png'
p1292
I21
sS'1117.png'
p1293
I2
sS'1137.png'
p1294
I4
sS'3159.png'
p1295
I24
sS'3269.png'
p1296
I26
sS'2382.png'
p1297
I17
sS'2202.png'
p1298
I14
sS'2010.png'
p1299
I11
sS'1182.png'
p1300
I4
sS'2101.png'
p1301
I12
sS'2624.png'
p1302
I21
sS'2548.png'
p1303
I20
sS'2075.png'
p1304
I12
sS'3334.png'
p1305
I27
sS'1142.png'
p1306
I4
sS'1006.png'
p1307
I1
sS'3239.png'
p1308
I26
sS'3193.png'
p1309
I25
sS'2403.png'
p1310
I17
sS'3123.png'
p1311
I24
sS'1552.png'
p1312
I3
sS'2175.png'
p1313
I14
sS'1467.png'
p1314
I10
sS'3325.png'
p1315
I27
sS'3085.png'
p1316
I23
sS'1221.png'
p1317
I5
sS'1152.png'
p1318
I4
sS'2492.png'
p1319
I19
sS'3615.png'
p1320
I32
sS'2509.png'
p1321
I19
sS'2091.png'
p1322
I12
sS'2355.png'
p1323
I17
sS'2307.png'
p1324
I16
sS'3285.png'
p1325
I27
sS'3337.png'
p1326
I28
sS'3472.png'
p1327
I30
sS'3278.png'
p1328
I26
sS'1447.png'
p1329
I10
sS'3598.png'
p1330
I32
sS'3129.png'
p1331
I24
sS'1551.png'
p1332
I9
sS'3427.png'
p1333
I29
sS'2147.png'
p1334
I13
sS'2003.png'
p1335
I11
sS'1281.png'
p1336
I6
sS'3618.png'
p1337
I32
sS'3213.png'
p1338
I25
sS'2059.png'
p1339
I12
sS'3209.png'
p1340
I25
sS'2297.png'
p1341
I16
sS'1482.png'
p1342
I10
sS'1549.png'
p1343
I9
sS'1130.png'
p1344
I4
sS'3202.png'
p1345
I25
sS'2323.png'
p1346
I16
sS'1525.png'
p1347
I9
sS'2341.png'
p1348
I16
sS'2163.png'
p1349
I13
sS'3480.png'
p1350
I30
sS'1224.png'
p1351
I5
sS'2206.png'
p1352
I14
sS'1339.png'
p1353
I7
sS'3015.png'
p1354
I22
sS'1470.png'
p1355
I10
sS'3160.png'
p1356
I24
sS'1303.png'
p1357
I6
sS'3477.png'
p1358
I30
sS'2623.png'
p1359
I21
sS'3508.png'
p1360
I30
sS'3196.png'
p1361
I25
sS'3566.png'
p1362
I32
sS'1192.png'
p1363
I4
sS'1449.png'
p1364
I10
sS'2131.png'
p1365
I13
sS'2004.png'
p1366
I11
sS'3131.png'
p1367
I24
sS'3610.png'
p1368
I32
sS'1450.png'
p1369
I10
sS'2412.png'
p1370
I17
sS'3572.png'
p1371
I32
sS'1366.png'
p1372
I7
sS'2209.png'
p1373
I14
sS'2114.png'
p1374
I13
sS'1342.png'
p1375
I7
sS'2124.png'
p1376
I13
sS'1353.png'
p1377
I7
sS'3270.png'
p1378
I26
sS'3143.png'
p1379
I24
sS'2659.png'
p1380
I21
sS'2656.png'
p1381
I21
sS'1149.png'
p1382
I4
sS'2577.png'
p1383
I20
sS'2203.png'
p1384
I14
sS'2248.png'
p1385
I15
sS'3268.png'
p1386
I26
sS'3115.png'
p1387
I24
sS'3585.png'
p1388
I32
sS'3122.png'
p1389
I24
sS'3265.png'
p1390
I26
sS'2117.png'
p1391
I13
sS'2092.png'
p1392
I12
sS'1023.png'
p1393
I1
sS'2566.png'
p1394
I20
sS'2463.png'
p1395
I18
sS'2196.png'
p1396
I14
sS'1323.png'
p1397
I6
sS'3176.png'
p1398
I25
sS'1553.png'
p1399
I3
sS'3099.png'
p1400
I23
sS'1492.png'
p1401
I10
sS'3031.png'
p1402
I22
sS'3416.png'
p1403
I29
sS'1575.png'
p1404
I3
sS'2472.png'
p1405
I18
sS'3556.png'
p1406
I31
sS'3489.png'
p1407
I30
sS'3084.png'
p1408
I23
sS'1078.png'
p1409
I2
sS'1218.png'
p1410
I5
sS'2520.png'
p1411
I19
sS'2241.png'
p1412
I15
sS'1394.png'
p1413
I8
sS'1455.png'
p1414
I10
sS'1475.png'
p1415
I10
sS'2350.png'
p1416
I17
sS'2581.png'
p1417
I20
sS'2264.png'
p1418
I15
sS'3028.png'
p1419
I22
sS'3241.png'
p1420
I26
sS'2187.png'
p1421
I14
sS'1359.png'
p1422
I7
sS'3014.png'
p1423
I22
sS'2021.png'
p1424
I11
sS'1356.png'
p1425
I7
sS'1077.png'
p1426
I2
sS'3494.png'
p1427
I30
sS'3481.png'
p1428
I30
sS'2415.png'
p1429
I17
sS'2386.png'
p1430
I17
sS'2055.png'
p1431
I12
sS'3505.png'
p1432
I30
sS'2315.png'
p1433
I16
sS'2641.png'
p1434
I21
sS'2413.png'
p1435
I17
sS'3458.png'
p1436
I30
sS'2542.png'
p1437
I19
sS'1225.png'
p1438
I5
sS'2424.png'
p1439
I18
sS'1468.png'
p1440
I10
sS'3152.png'
p1441
I24
sS'2290.png'
p1442
I15
sS'1003.png'
p1443
I1
sS'1007.png'
p1444
I1
sS'3142.png'
p1445
I24
sS'2223.png'
p1446
I14
sS'1597.png'
p1447
I3
sS'1172.png'
p1448
I4
sS'2208.png'
p1449
I14
sS'2477.png'
p1450
I18
sS'2515.png'
p1451
I19
sS'3169.png'
p1452
I24
sS'2318.png'
p1453
I16
sS'3277.png'
p1454
I26
sS'1038.png'
p1455
I1
sS'1215.png'
p1456
I5
sS'2045.png'
p1457
I11
sS'2531.png'
p1458
I19
sS'3307.png'
p1459
I27
sS'2178.png'
p1460
I14
sS'2372.png'
p1461
I17
sS'3460.png'
p1462
I30
sS'2224.png'
p1463
I14
sS'1208.png'
p1464
I5
sS'1601.png'
p1465
I3
sS'3094.png'
p1466
I23
sS'1377.png'
p1467
I7
sS'3042.png'
p1468
I22
sS'3362.png'
p1469
I28
sS'2406.png'
p1470
I17
sS'3330.png'
p1471
I27
sS'1424.png'
p1472
I8
sS'2433.png'
p1473
I18
sS'3353.png'
p1474
I28
sS'2586.png'
p1475
I20
sS'3555.png'
p1476
I31
sS'1037.png'
p1477
I1
sS'2046.png'
p1478
I11
sS'1615.png'
p1479
I3
sS'2342.png'
p1480
I16
sS'1437.png'
p1481
I8
sS'2669.png'
p1482
I21
sS'1201.png'
p1483
I5
sS'1389.png'
p1484
I8
sS'2395.png'
p1485
I17
sS'2191.png'
p1486
I14
sS'3484.png'
p1487
I30
sS'2423.png'
p1488
I17
sS'2363.png'
p1489
I17
sS'2335.png'
p1490
I16
sS'1519.png'
p1491
I9
sS'3386.png'
p1492
I28
sS'1346.png'
p1493
I7
sS'2214.png'
p1494
I14
sS'2491.png'
p1495
I19
sS'1198.png'
p1496
I5
sS'3291.png'
p1497
I27
sS'2648.png'
p1498
I21
sS'3436.png'
p1499
I29
sS'1098.png'
p1500
I2
sS'3521.png'
p1501
I31
sS'2626.png'
p1502
I21
sS'2145.png'
p1503
I13
sS'3407.png'
p1504
I29
sS'2541.png'
p1505
I19
sS'1179.png'
p1506
I4
sS'3016.png'
p1507
I22
sS'1493.png'
p1508
I10
sS'2485.png'
p1509
I18
sS'2408.png'
p1510
I17
sS'2432.png'
p1511
I18
sS'1049.png'
p1512
I1
sS'1076.png'
p1513
I2
sS'1358.png'
p1514
I7
sS'2360.png'
p1515
I17
sS'1411.png'
p1516
I8
sS'1300.png'
p1517
I6
sS'2637.png'
p1518
I21
sS'2640.png'
p1519
I21
sS'1086.png'
p1520
I2
sS'1510.png'
p1521
I9
sS'3452.png'
p1522
I30
sS'2222.png'
p1523
I14
sS'1562.png'
p1524
I3
sS'3066.png'
p1525
I23
sS'1397.png'
p1526
I8
sS'1324.png'
p1527
I7
sS'3470.png'
p1528
I30
sS'1277.png'
p1529
I6
sS'2081.png'
p1530
I12
sS'1246.png'
p1531
I5
sS'2608.png'
p1532
I20
sS'3181.png'
p1533
I25
sS'3551.png'
p1534
I31
sS'1502.png'
p1535
I9
sS'1252.png'
p1536
I5
sS'1017.png'
p1537
I1
sS'3605.png'
p1538
I32
sS'1561.png'
p1539
I3
sS'1009.png'
p1540
I1
sS'2238.png'
p1541
I15
sS'3306.png'
p1542
I27
sS'3048.png'
p1543
I22
sS'3103.png'
p1544
I23
sS'1254.png'
p1545
I5
sS'3619.png'
p1546
I32
sS'3248.png'
p1547
I26
sS'2616.png'
p1548
I21
sS'2392.png'
p1549
I17
sS'2044.png'
p1550
I11
sS'3490.png'
p1551
I30
sS'1370.png'
p1552
I7
sS'2204.png'
p1553
I14
sS'2066.png'
p1554
I12
sS'1321.png'
p1555
I6
sS'3191.png'
p1556
I25
sS'3332.png'
p1557
I27
sS'2153.png'
p1558
I13
sS'1234.png'
p1559
I5
sS'1290.png'
p1560
I6
sS'1039.png'
p1561
I1
sS'2545.png'
p1562
I19
sS'1600.png'
p1563
I3
sS'3554.png'
p1564
I31
sS'3348.png'
p1565
I28
sS'1529.png'
p1566
I9
sS'2286.png'
p1567
I15
sS'2140.png'
p1568
I13
sS'1478.png'
p1569
I10
sS'3229.png'
p1570
I25
sS'3179.png'
p1571
I25
sS'1581.png'
p1572
I3
sS'3083.png'
p1573
I23
sS'2056.png'
p1574
I12
sS'3314.png'
p1575
I27
sS'2001.png'
p1576
I11
sS'2459.png'
p1577
I18
sS'3257.png'
p1578
I26
sS'2645.png'
p1579
I21
sS'2077.png'
p1580
I12
sS'2276.png'
p1581
I15
sS'3086.png'
p1582
I23
sS'3595.png'
p1583
I32
sS'3005.png'
p1584
I22
sS'3359.png'
p1585
I28
sS'3221.png'
p1586
I25
sS'2177.png'
p1587
I14
sS'3468.png'
p1588
I30
sS'1206.png'
p1589
I5
sS'3365.png'
p1590
I28
sS'2490.png'
p1591
I19
sS'2510.png'
p1592
I19
sS'3211.png'
p1593
I25
sS'2540.png'
p1594
I19
sS'3602.png'
p1595
I32
sS'2275.png'
p1596
I15
sS'2514.png'
p1597
I19
sS'2461.png'
p1598
I18
sS'2074.png'
p1599
I12
sS'1430.png'
p1600
I8
sS'3092.png'
p1601
I23
sS'1387.png'
p1602
I8
sS'2199.png'
p1603
I14
sS'2119.png'
p1604
I13
sS'3112.png'
p1605
I24
sS'3531.png'
p1606
I31
sS'3446.png'
p1607
I29
sS'1108.png'
p1608
I2
sS'1132.png'
p1609
I4
sS'2316.png'
p1610
I16
sS'2438.png'
p1611
I18
sS'2660.png'
p1612
I21
sS'3233.png'
p1613
I26
sS'1100.png'
p1614
I2
sS'2148.png'
p1615
I13
sS'2138.png'
p1616
I13
sS'1396.png'
p1617
I8
sS'3339.png'
p1618
I28
sS'3409.png'
p1619
I29
sS'2583.png'
p1620
I20
sS'2394.png'
p1621
I17
sS'1337.png'
p1622
I7
sS'2133.png'
p1623
I13
sS'2502.png'
p1624
I19
sS'2444.png'
p1625
I18
sS'3371.png'
p1626
I28
sS'2654.png'
p1627
I21
sS'3570.png'
p1628
I32
sS'2328.png'
p1629
I16
sS'3220.png'
p1630
I25
sS'1236.png'
p1631
I5
sS'2674.png'
p1632
I21
sS'1520.png'
p1633
I9
sS'1239.png'
p1634
I5
sS'2068.png'
p1635
I12
sS'1190.png'
p1636
I4
sS'1040.png'
p1637
I1
sS'2006.png'
p1638
I11
sS'3529.png'
p1639
I31
sS'3249.png'
p1640
I26
sS'2633.png'
p1641
I21
sS'1014.png'
p1642
I1
sS'1081.png'
p1643
I2
sS'3246.png'
p1644
I26
sS'2232.png'
p1645
I15
sS'1282.png'
p1646
I6
sS'3577.png'
p1647
I32
sS'3199.png'
p1648
I25
sS'2369.png'
p1649
I17
sS'1320.png'
p1650
I6
sS'1255.png'
p1651
I5
sS'3075.png'
p1652
I23
sS'1414.png'
p1653
I8
sS'3593.png'
p1654
I32
sS'3349.png'
p1655
I28
sS'1043.png'
p1656
I1
sS'1410.png'
p1657
I8
sS'1021.png'
p1658
I1
sS'2564.png'
p1659
I20
sS'3473.png'
p1660
I30
sS'1217.png'
p1661
I5
sS'1448.png'
p1662
I10
sS'3138.png'
p1663
I24
sS'3469.png'
p1664
I30
sS'2164.png'
p1665
I13
sS'3088.png'
p1666
I23
sS'1409.png'
p1667
I8
sS'3462.png'
p1668
I30
sS'2595.png'
p1669
I20
sS'2277.png'
p1670
I15
sS'2100.png'
p1671
I12
sS'3040.png'
p1672
I22
sS'2017.png'
p1673
I11
sS'2090.png'
p1674
I12
sS'2611.png'
p1675
I20
sS'2278.png'
p1676
I15
sS'2251.png'
p1677
I15
sS'3620.png'
p1678
I32
sS'2563.png'
p1679
I20
sS'1084.png'
p1680
I2
sS'1512.png'
p1681
I9
sS'3021.png'
p1682
I22
sS'3132.png'
p1683
I24
sS'1159.png'
p1684
I4
sS'1066.png'
p1685
I2
sS'2037.png'
p1686
I11
sS'3300.png'
p1687
I27
sS'1163.png'
p1688
I4
sS'1593.png'
p1689
I3
sS'2443.png'
p1690
I18
sS'3230.png'
p1691
I26
sS'1406.png'
p1692
I8
sS'2391.png'
p1693
I17
sS'1228.png'
p1694
I5
sS'2099.png'
p1695
I12
sS'2207.png'
p1696
I14
sS'1550.png'
p1697
I9
sS'3351.png'
p1698
I28
sS'1344.png'
p1699
I7
sS'3296.png'
p1700
I27
sS'2198.png'
p1701
I14
sS'1454.png'
p1702
I10
sS'2266.png'
p1703
I15
sS'1122.png'
p1704
I2
sS'2216.png'
p1705
I14
sS'1133.png'
p1706
I4
sS'3410.png'
p1707
I29
sS'3396.png'
p1708
I29
sS'1546.png'
p1709
I9
sS'3571.png'
p1710
I32
sS'3323.png'
p1711
I27
sS'2667.png'
p1712
I21
sS'1526.png'
p1713
I9
sS'2579.png'
p1714
I20
sS'2082.png'
p1715
I12
sS'1487.png'
p1716
I10
sS'2439.png'
p1717
I18
sS'3515.png'
p1718
I31
sS'3266.png'
p1719
I26
sS'2384.png'
p1720
I17
sS'2436.png'
p1721
I18
sS'2317.png'
p1722
I16
sS'3408.png'
p1723
I29
sS'3395.png'
p1724
I29
sS'1419.png'
p1725
I8
sS'2039.png'
p1726
I11
sS'1184.png'
p1727
I4
sS'1191.png'
p1728
I4
sS'1237.png'
p1729
I5
sS'3509.png'
p1730
I30
sS'3405.png'
p1731
I29
sS'2265.png'
p1732
I15
sS'1348.png'
p1733
I7
sS'1572.png'
p1734
I3
sS'2306.png'
p1735
I16
sS'1112.png'
p1736
I2
sS'1143.png'
p1737
I4
sS'3316.png'
p1738
I27
sS'1041.png'
p1739
I1
sS'1594.png'
p1740
I3
sS'2565.png'
p1741
I20
sS'3553.png'
p1742
I31
sS'1354.png'
p1743
I7
sS'3195.png'
p1744
I25
sS'2399.png'
p1745
I17
sS'1015.png'
p1746
I1
sS'2184.png'
p1747
I14
sS'3234.png'
p1748
I26
sS'3607.png'
p1749
I32
sS'2340.png'
p1750
I16
sS'1279.png'
p1751
I6
sS'1375.png'
p1752
I7
sS'1466.png'
p1753
I10
sS'3162.png'
p1754
I24
sS'1079.png'
p1755
I2
sS'3421.png'
p1756
I29
sS'1139.png'
p1757
I4
sS'1067.png'
p1758
I2
sS'3492.png'
p1759
I30
sS'3041.png'
p1760
I22
sS'1373.png'
p1761
I7
sS'1136.png'
p1762
I4
sS'3281.png'
p1763
I26
sS'3621.png'
p1764
I32
sS'3547.png'
p1765
I31
sS'2569.png'
p1766
I20
sS'2547.png'
p1767
I20
sS'3377.png'
p1768
I28
sS'2421.png'
p1769
I17
sS'3399.png'
p1770
I29
sS'2322.png'
p1771
I16
sS'1085.png'
p1772
I2
sS'1317.png'
p1773
I6
sS'2284.png'
p1774
I15
sS'1408.png'
p1775
I8
sS'2488.png'
p1776
I19
sS'1491.png'
p1777
I10
sS'2628.png'
p1778
I21
sS'3231.png'
p1779
I26
sS'1588.png'
p1780
I3
sS'3544.png'
p1781
I31
sS'2005.png'
p1782
I11
sS'1517.png'
p1783
I9
sS'3523.png'
p1784
I31
sS'3322.png'
p1785
I27
sS'1391.png'
p1786
I8
sS'2375.png'
p1787
I17
sS'1484.png'
p1788
I10
sS'3417.png'
p1789
I29
sS'2487.png'
p1790
I19
sS'2158.png'
p1791
I13
sS'2553.png'
p1792
I20
sS'3611.png'
p1793
I32
sS'2351.png'
p1794
I17
sS'1523.png'
p1795
I9
sS'2246.png'
p1796
I15
sS'2592.png'
p1797
I20
sS'3486.png'
p1798
I30
sS'3140.png'
p1799
I24
sS'3037.png'
p1800
I22
sS'1456.png'
p1801
I10
sS'3445.png'
p1802
I29
sS'1441.png'
p1803
I10
sS'2018.png'
p1804
I11
sS'3078.png'
p1805
I23
sS'1343.png'
p1806
I7
sS'3224.png'
p1807
I25
sS'2083.png'
p1808
I12
sS'2161.png'
p1809
I13
sS'2293.png'
p1810
I16
sS'2550.png'
p1811
I20
sS'1110.png'
p1812
I2
sS'2165.png'
p1813
I13
sS'1367.png'
p1814
I7
sS'3101.png'
p1815
I23
sS'3526.png'
p1816
I31
sS'3459.png'
p1817
I30
sS'2409.png'
p1818
I17
sS'1477.png'
p1819
I10
sS'1557.png'
p1820
I3
sS'2283.png'
p1821
I15
sS'2625.png'
p1822
I21
sS'1126.png'
p1823
I4
sS'3503.png'
p1824
I30
sS'1539.png'
p1825
I9
sS'3106.png'
p1826
I23
sS'2638.png'
p1827
I21
sS'2231.png'
p1828
I15
sS'2597.png'
p1829
I20
sS'3272.png'
p1830
I26
sS'2416.png'
p1831
I17
sS'2428.png'
p1832
I18
sS'3054.png'
p1833
I22
sS'2446.png'
p1834
I18
sS'2571.png'
p1835
I20
sS'2054.png'
p1836
I12
sS'3161.png'
p1837
I24
sS'2321.png'
p1838
I16
sS'2115.png'
p1839
I13
sS'1065.png'
p1840
I2
sS'3255.png'
p1841
I26
sS'2225.png'
p1842
I14
sS'2292.png'
p1843
I16
sS'1616.png'
p1844
I3
sS'1138.png'
p1845
I4
sS'1360.png'
p1846
I7
sS'2047.png'
p1847
I11
sS'3308.png'
p1848
I27
sS'1315.png'
p1849
I6
sS'3070.png'
p1850
I23
sS'3158.png'
p1851
I24
sS'2631.png'
p1852
I21
sS'1160.png'
p1853
I4
sS'1583.png'
p1854
I3
sS'3081.png'
p1855
I23
sS'2457.png'
p1856
I18
sS'1280.png'
p1857
I6
sS'2420.png'
p1858
I17
sS'3546.png'
p1859
I31
sS'1002.png'
p1860
I1
sS'2508.png'
p1861
I19
sS'1030.png'
p1862
I1
sS'1465.png'
p1863
I10
sS'1144.png'
p1864
I4
sS'3549.png'
p1865
I31
sS'3252.png'
p1866
I26
sS'3360.png'
p1867
I28
sS'2194.png'
p1868
I14
sS'2468.png'
p1869
I18
sS'1372.png'
p1870
I7
sS'3495.png'
p1871
I30
sS'3398.png'
p1872
I29
sS'1577.png'
p1873
I3
sS'1589.png'
p1874
I3
sS'1573.png'
p1875
I3
sS'1432.png'
p1876
I8
sS'3550.png'
p1877
I31
sS'1338.png'
p1878
I7
sS'2486.png'
p1879
I19
sS'3082.png'
p1880
I23
sS'3284.png'
p1881
I27
sS'2061.png'
p1882
I12
sS'3363.png'
p1883
I28
sS'3567.png'
p1884
I32
sS'3428.png'
p1885
I29
sS'3003.png'
p1886
I22
sS'2476.png'
p1887
I18
sS'2552.png'
p1888
I20
sS'3100.png'
p1889
I23
sS'3597.png'
p1890
I32
sS'1446.png'
p1891
I10
sS'2647.png'
p1892
I21
sS'2534.png'
p1893
I19
sS'1141.png'
p1894
I4
sS'1250.png'
p1895
I5
sS'1094.png'
p1896
I2
sS'3124.png'
p1897
I24
sS'2325.png'
p1898
I16
sS'3047.png'
p1899
I22
sS'3444.png'
p1900
I29
sS'1220.png'
p1901
I5
sS'3155.png'
p1902
I24
sS'2662.png'
p1903
I21
sS'2179.png'
p1904
I14
sS'3079.png'
p1905
I23
sS'3305.png'
p1906
I27
sS'3449.png'
p1907
I30
sS'3344.png'
p1908
I28
s.
